target datalayout = "e-m:e-p270:32:32-p271:32:32-p272:64:64-i64:64-i128:128-f80:128-n8:16:32:64-S128"
target triple = "x86_64-pc-linux-gnu"

%"struct.cv::softfloat" = type { i32 }

; Function Attrs: mustprogress nounwind uwtable
define internal void @_ZN2cvL10raiseFlagsEh(i8 noundef zeroext %0) #1 {
  %2 = alloca i8, align 1
  store i8 %0, ptr %2, align 1
  ret void
}

; Function Attrs: mustprogress nounwind uwtable
define internal noundef i32 @_ZN2cvL25softfloat_shiftRightJam32Ejm(i32 noundef %0, i64 noundef %1) #1 {
  %3 = alloca i32, align 4
  %4 = alloca i64, align 8
  store i32 %0, ptr %3, align 4
  store i64 %1, ptr %4, align 8
  %5 = load i64, ptr %4, align 8
  %6 = icmp ult i64 %5, 31
  br i1 %6, label %7, label %22

7:                                                ; preds = %2
  %8 = load i32, ptr %3, align 4
  %9 = load i64, ptr %4, align 8
  %10 = trunc i64 %9 to i32
  %11 = lshr i32 %8, %10
  %12 = load i32, ptr %3, align 4
  %13 = load i64, ptr %4, align 8
  %14 = xor i64 %13, -1
  %15 = add i64 %14, 1
  %16 = and i64 %15, 31
  %17 = trunc i64 %16 to i32
  %18 = shl i32 %12, %17
  %19 = icmp ne i32 %18, 0
  %20 = zext i1 %19 to i32
  %21 = or i32 %11, %20
  br label %26

22:                                               ; preds = %2
  %23 = load i32, ptr %3, align 4
  %24 = icmp ne i32 %23, 0
  %25 = zext i1 %24 to i32
  br label %26

26:                                               ; preds = %22, %7
  %27 = phi i32 [ %21, %7 ], [ %25, %22 ]
  ret i32 %27
}

; Function Attrs: mustprogress nounwind uwtable
define linkonce_odr hidden void @_ZN2cv9softfloatC2Ev(ptr noundef nonnull align 4 dereferenceable(4) %0) unnamed_addr #1 comdat align 2 {
  %2 = alloca ptr, align 8
  store ptr %0, ptr %2, align 8
  %3 = load ptr, ptr %2, align 8
  %4 = getelementptr inbounds %"struct.cv::softfloat", ptr %3, i32 0, i32 0
  store i32 0, ptr %4, align 4
  ret void
}

; Function Attrs: mustprogress uwtable
define internal void @_ZN2cvL24softfloat_roundPackToF32Eblm(ptr dead_on_unwind noalias writable sret(%"struct.cv::softfloat") align 4 %0, i1 noundef zeroext %1, i64 noundef %2, i64 noundef %3) #0 {
  %5 = alloca ptr, align 8
  %6 = alloca i8, align 1
  %7 = alloca i64, align 8
  %8 = alloca i64, align 8
  %9 = alloca i8, align 1
  %10 = alloca i8, align 1
  %11 = alloca i8, align 1
  %12 = alloca i8, align 1
  %13 = alloca i8, align 1
  %14 = alloca i64, align 8
  store ptr %0, ptr %5, align 8
  %15 = zext i1 %1 to i8
  store i8 %15, ptr %6, align 1
  store i64 %2, ptr %7, align 8
  store i64 %3, ptr %8, align 8
  store i8 0, ptr %9, align 1
  %16 = load i8, ptr %9, align 1
  %17 = zext i8 %16 to i32
  %18 = icmp eq i32 %17, 0
  %19 = zext i1 %18 to i8
  store i8 %19, ptr %10, align 1
  store i8 64, ptr %11, align 1
  %20 = load i8, ptr %10, align 1
  %21 = trunc i8 %20 to i1
  br i1 %21, label %35, label %22

22:                                               ; preds = %4
  %23 = load i8, ptr %9, align 1
  %24 = zext i8 %23 to i32
  %25 = icmp ne i32 %24, 4
  br i1 %25, label %26, label %35

26:                                               ; preds = %22
  %27 = load i8, ptr %9, align 1
  %28 = zext i8 %27 to i32
  %29 = load i8, ptr %6, align 1
  %30 = trunc i8 %29 to i1
  %31 = select i1 %30, i32 2, i32 3
  %32 = icmp eq i32 %28, %31
  %33 = select i1 %32, i32 127, i32 0
  %34 = trunc i32 %33 to i8
  store i8 %34, ptr %11, align 1
  br label %35

35:                                               ; preds = %26, %22, %4
  %36 = load i64, ptr %8, align 8
  %37 = and i64 %36, 127
  %38 = trunc i64 %37 to i8
  store i8 %38, ptr %12, align 1
  %39 = load i64, ptr %7, align 8
  %40 = trunc i64 %39 to i32
  %41 = icmp ule i32 253, %40
  br i1 %41, label %42, label %97

42:                                               ; preds = %35
  %43 = load i64, ptr %7, align 8
  %44 = icmp slt i64 %43, 0
  br i1 %44, label %45, label %73

45:                                               ; preds = %42
  %46 = load i64, ptr %7, align 8
  %47 = icmp slt i64 %46, -1
  br i1 %47, label %54, label %48

48:                                               ; preds = %45
  %49 = load i64, ptr %8, align 8
  %50 = load i8, ptr %11, align 1
  %51 = zext i8 %50 to i64
  %52 = add i64 %49, %51
  %53 = icmp ult i64 %52, 2147483648
  br label %54

54:                                               ; preds = %48, %45
  %55 = phi i1 [ true, %45 ], [ %53, %48 ]
  %56 = zext i1 %55 to i8
  store i8 %56, ptr %13, align 1
  %57 = load i64, ptr %8, align 8
  %58 = trunc i64 %57 to i32
  %59 = load i64, ptr %7, align 8
  %60 = sub nsw i64 0, %59
  %61 = call noundef i32 @_ZN2cvL25softfloat_shiftRightJam32Ejm(i32 noundef %58, i64 noundef %60)
  %62 = zext i32 %61 to i64
  store i64 %62, ptr %8, align 8
  store i64 0, ptr %7, align 8
  %63 = load i64, ptr %8, align 8
  %64 = and i64 %63, 127
  %65 = trunc i64 %64 to i8
  store i8 %65, ptr %12, align 1
  %66 = load i8, ptr %13, align 1
  %67 = trunc i8 %66 to i1
  br i1 %67, label %68, label %72

68:                                               ; preds = %54
  %69 = load i8, ptr %12, align 1
  %70 = icmp ne i8 %69, 0
  br i1 %70, label %71, label %72

71:                                               ; preds = %68
  call void @_ZN2cvL10raiseFlagsEh(i8 noundef zeroext 2)
  br label %72

72:                                               ; preds = %71, %68, %54
  br label %96

73:                                               ; preds = %42
  %74 = load i64, ptr %7, align 8
  %75 = icmp slt i64 253, %74
  br i1 %75, label %82, label %76

76:                                               ; preds = %73
  %77 = load i64, ptr %8, align 8
  %78 = load i8, ptr %11, align 1
  %79 = zext i8 %78 to i64
  %80 = add i64 %77, %79
  %81 = icmp ule i64 2147483648, %80
  br i1 %81, label %82, label %95

82:                                               ; preds = %76, %73
  call void @_ZN2cvL10raiseFlagsEh(i8 noundef zeroext 5)
  %83 = load i8, ptr %6, align 1
  %84 = trunc i8 %83 to i1
  %85 = zext i1 %84 to i32
  %86 = shl i32 %85, 31
  %87 = add i32 %86, 2139095040
  %88 = add i32 %87, 0
  %89 = load i8, ptr %11, align 1
  %90 = icmp ne i8 %89, 0
  %91 = xor i1 %90, true
  %92 = zext i1 %91 to i32
  %93 = sub i32 %88, %92
  %94 = zext i32 %93 to i64
  store i64 %94, ptr %14, align 8
  br label %144

95:                                               ; preds = %76
  br label %96

96:                                               ; preds = %95, %72
  br label %97

97:                                               ; preds = %96, %35
  %98 = load i64, ptr %8, align 8
  %99 = load i8, ptr %11, align 1
  %100 = zext i8 %99 to i64
  %101 = add i64 %98, %100
  %102 = lshr i64 %101, 7
  store i64 %102, ptr %8, align 8
  %103 = load i8, ptr %12, align 1
  %104 = icmp ne i8 %103, 0
  br i1 %104, label %105, label %113

105:                                              ; preds = %97
  call void @_ZN2cvL10raiseFlagsEh(i8 noundef zeroext 1)
  %106 = load i8, ptr %9, align 1
  %107 = zext i8 %106 to i32
  %108 = icmp eq i32 %107, 5
  br i1 %108, label %109, label %112

109:                                              ; preds = %105
  %110 = load i64, ptr %8, align 8
  %111 = or i64 %110, 1
  store i64 %111, ptr %8, align 8
  br label %132

112:                                              ; preds = %105
  br label %113

113:                                              ; preds = %112, %97
  %114 = load i8, ptr %12, align 1
  %115 = zext i8 %114 to i32
  %116 = xor i32 %115, 64
  %117 = icmp ne i32 %116, 0
  %118 = xor i1 %117, true
  %119 = zext i1 %118 to i32
  %120 = load i8, ptr %10, align 1
  %121 = trunc i8 %120 to i1
  %122 = zext i1 %121 to i32
  %123 = and i32 %119, %122
  %124 = sext i32 %123 to i64
  %125 = xor i64 %124, -1
  %126 = load i64, ptr %8, align 8
  %127 = and i64 %126, %125
  store i64 %127, ptr %8, align 8
  %128 = load i64, ptr %8, align 8
  %129 = icmp ne i64 %128, 0
  br i1 %129, label %131, label %130

130:                                              ; preds = %113
  store i64 0, ptr %7, align 8
  br label %131

131:                                              ; preds = %130, %113
  br label %132

132:                                              ; preds = %131, %109
  %133 = load i8, ptr %6, align 1
  %134 = trunc i8 %133 to i1
  %135 = zext i1 %134 to i32
  %136 = shl i32 %135, 31
  %137 = load i64, ptr %7, align 8
  %138 = trunc i64 %137 to i32
  %139 = shl i32 %138, 23
  %140 = add i32 %136, %139
  %141 = zext i32 %140 to i64
  %142 = load i64, ptr %8, align 8
  %143 = add i64 %141, %142
  store i64 %143, ptr %14, align 8
  br label %144

144:                                              ; preds = %132, %82
  %145 = load i64, ptr %14, align 8
  %146 = trunc i64 %145 to i32
  call void @_ZN2cv9softfloat7fromRawEj(ptr dead_on_unwind writable sret(%"struct.cv::softfloat") align 4 %0, i32 noundef %146)
  ret void
}

; Function Attrs: mustprogress nounwind uwtable
define internal noundef i64 @_ZN2cvL30softfloat_shortShiftRightJam64Emh(i64 noundef %0, i8 noundef zeroext %1) #1 {
  %3 = alloca i64, align 8
  %4 = alloca i8, align 1
  store i64 %0, ptr %3, align 8
  store i8 %1, ptr %4, align 1
  %5 = load i64, ptr %3, align 8
  %6 = load i8, ptr %4, align 1
  %7 = zext i8 %6 to i32
  %8 = zext i32 %7 to i64
  %9 = lshr i64 %5, %8
  %10 = load i64, ptr %3, align 8
  %11 = load i8, ptr %4, align 1
  %12 = zext i8 %11 to i32
  %13 = zext i32 %12 to i64
  %14 = shl i64 1, %13
  %15 = sub i64 %14, 1
  %16 = and i64 %10, %15
  %17 = icmp ne i64 %16, 0
  %18 = zext i1 %17 to i64
  %19 = or i64 %9, %18
  ret i64 %19
}

; Function Attrs: mustprogress uwtable
define linkonce_odr hidden void @_ZN2cv9softfloat7fromRawEj(ptr dead_on_unwind noalias writable sret(%"struct.cv::softfloat") align 4 %0, i32 noundef %1) #0 comdat align 2 {
  %3 = alloca ptr, align 8
  %4 = alloca i32, align 4
  store ptr %0, ptr %3, align 8
  store i32 %1, ptr %4, align 4
  call void @_ZN2cv9softfloatC2Ev(ptr noundef nonnull align 4 dereferenceable(4) %0)
  %5 = load i32, ptr %4, align 4
  %6 = getelementptr inbounds %"struct.cv::softfloat", ptr %0, i32 0, i32 0
  store i32 %5, ptr %6, align 4
  ret void
}

; Function Attrs: mustprogress nounwind uwtable
define internal noundef zeroext i8 @_ZN2cvL29softfloat_countLeadingZeros64Em(i64 noundef %0) #1 {
  %2 = alloca i64, align 8
  %3 = alloca i8, align 1
  %4 = alloca i32, align 4
  store i64 %0, ptr %2, align 8
  store i8 0, ptr %3, align 1
  %5 = load i64, ptr %2, align 8
  %6 = lshr i64 %5, 32
  %7 = trunc i64 %6 to i32
  store i32 %7, ptr %4, align 4
  %8 = load i32, ptr %4, align 4
  %9 = icmp ne i32 %8, 0
  br i1 %9, label %13, label %10

10:                                               ; preds = %1
  store i8 32, ptr %3, align 1
  %11 = load i64, ptr %2, align 8
  %12 = trunc i64 %11 to i32
  store i32 %12, ptr %4, align 4
  br label %13

13:                                               ; preds = %10, %1
  %14 = load i32, ptr %4, align 4
  %15 = icmp ult i32 %14, 65536
  br i1 %15, label %16, label %23

16:                                               ; preds = %13
  %17 = load i8, ptr %3, align 1
  %18 = zext i8 %17 to i32
  %19 = add nsw i32 %18, 16
  %20 = trunc i32 %19 to i8
  store i8 %20, ptr %3, align 1
  %21 = load i32, ptr %4, align 4
  %22 = shl i32 %21, 16
  store i32 %22, ptr %4, align 4
  br label %23

23:                                               ; preds = %16, %13
  %24 = load i32, ptr %4, align 4
  %25 = icmp ult i32 %24, 16777216
  br i1 %25, label %26, label %33

26:                                               ; preds = %23
  %27 = load i8, ptr %3, align 1
  %28 = zext i8 %27 to i32
  %29 = add nsw i32 %28, 8
  %30 = trunc i32 %29 to i8
  store i8 %30, ptr %3, align 1
  %31 = load i32, ptr %4, align 4
  %32 = shl i32 %31, 8
  store i32 %32, ptr %4, align 4
  br label %33

33:                                               ; preds = %26, %23
  %34 = load i32, ptr %4, align 4
  %35 = lshr i32 %34, 24
  %36 = zext i32 %35 to i64
  %37 = getelementptr inbounds [256 x i8], ptr @_ZN2cvL28softfloat_countLeadingZeros8E, i64 0, i64 %36
  %38 = load i8, ptr %37, align 1
  %39 = zext i8 %38 to i32
  %40 = load i8, ptr %3, align 1
  %41 = zext i8 %40 to i32
  %42 = add nsw i32 %41, %39
  %43 = trunc i32 %42 to i8
  store i8 %43, ptr %3, align 1
  %44 = load i8, ptr %3, align 1
  ret i8 %44
}

; Function Attrs: mustprogress nounwind uwtable
define linkonce_odr hidden noundef nonnull align 4 dereferenceable(4) ptr @_ZN2cv9softfloataSERKS0_(ptr noundef nonnull align 4 dereferenceable(4) %0, ptr noundef nonnull align 4 dereferenceable(4) %1) #1 comdat align 2 {
  %3 = alloca ptr, align 8
  %4 = alloca ptr, align 8
  store ptr %0, ptr %3, align 8
  store ptr %1, ptr %4, align 8
  %5 = load ptr, ptr %3, align 8
  %6 = load ptr, ptr %4, align 8
  %7 = icmp ne ptr %6, %5
  br i1 %7, label %8, label %13

8:                                                ; preds = %2
  %9 = load ptr, ptr %4, align 8
  %10 = getelementptr inbounds %"struct.cv::softfloat", ptr %9, i32 0, i32 0
  %11 = load i32, ptr %10, align 4
  %12 = getelementptr inbounds %"struct.cv::softfloat", ptr %5, i32 0, i32 0
  store i32 %11, ptr %12, align 4
  br label %13

13:                                               ; preds = %8, %2
  ret ptr %5
}

; Function Attrs: mustprogress uwtable
define internal void @_ZN2cvL11ui64_to_f32Em(ptr dead_on_unwind noalias writable sret(%"struct.cv::softfloat") align 4 %0, i64 noundef %1) #0 {
  %3 = alloca ptr, align 8
  %4 = alloca i64, align 8
  %5 = alloca i8, align 1
  %6 = alloca i64, align 8
  store ptr %0, ptr %3, align 8
  store i64 %1, ptr %4, align 8
  %7 = load i64, ptr %4, align 8
  %8 = call noundef zeroext i8 @_ZN2cvL29softfloat_countLeadingZeros64Em(i64 noundef %7)
  %9 = zext i8 %8 to i32
  %10 = sub nsw i32 %9, 40
  %11 = trunc i32 %10 to i8
  store i8 %11, ptr %5, align 1
  %12 = load i8, ptr %5, align 1
  %13 = sext i8 %12 to i32
  %14 = icmp sle i32 0, %13
  br i1 %14, label %15, label %35

15:                                               ; preds = %2
  %16 = load i64, ptr %4, align 8
  %17 = icmp ne i64 %16, 0
  br i1 %17, label %18, label %31

18:                                               ; preds = %15
  %19 = load i8, ptr %5, align 1
  %20 = sext i8 %19 to i32
  %21 = sub nsw i32 149, %20
  %22 = shl i32 %21, 23
  %23 = add i32 0, %22
  %24 = zext i32 %23 to i64
  %25 = load i64, ptr %4, align 8
  %26 = load i8, ptr %5, align 1
  %27 = sext i8 %26 to i32
  %28 = zext i32 %27 to i64
  %29 = shl i64 %25, %28
  %30 = add i64 %24, %29
  br label %32

31:                                               ; preds = %15
  br label %32

32:                                               ; preds = %31, %18
  %33 = phi i64 [ %30, %18 ], [ 0, %31 ]
  %34 = trunc i64 %33 to i32
  call void @_ZN2cv9softfloat7fromRawEj(ptr dead_on_unwind writable sret(%"struct.cv::softfloat") align 4 %0, i32 noundef %34)
  br label %63

35:                                               ; preds = %2
  %36 = load i8, ptr %5, align 1
  %37 = sext i8 %36 to i32
  %38 = add nsw i32 %37, 7
  %39 = trunc i32 %38 to i8
  store i8 %39, ptr %5, align 1
  %40 = load i8, ptr %5, align 1
  %41 = sext i8 %40 to i32
  %42 = icmp slt i32 %41, 0
  br i1 %42, label %43, label %50

43:                                               ; preds = %35
  %44 = load i64, ptr %4, align 8
  %45 = load i8, ptr %5, align 1
  %46 = sext i8 %45 to i32
  %47 = sub nsw i32 0, %46
  %48 = trunc i32 %47 to i8
  %49 = call noundef i64 @_ZN2cvL30softfloat_shortShiftRightJam64Emh(i64 noundef %44, i8 noundef zeroext %48)
  br label %56

50:                                               ; preds = %35
  %51 = load i64, ptr %4, align 8
  %52 = load i8, ptr %5, align 1
  %53 = sext i8 %52 to i32
  %54 = zext i32 %53 to i64
  %55 = shl i64 %51, %54
  br label %56

56:                                               ; preds = %50, %43
  %57 = phi i64 [ %49, %43 ], [ %55, %50 ]
  store i64 %57, ptr %6, align 8
  %58 = load i8, ptr %5, align 1
  %59 = sext i8 %58 to i32
  %60 = sub nsw i32 156, %59
  %61 = sext i32 %60 to i64
  %62 = load i64, ptr %6, align 8
  call void @_ZN2cvL24softfloat_roundPackToF32Eblm(ptr dead_on_unwind writable sret(%"struct.cv::softfloat") align 4 %0, i1 noundef zeroext false, i64 noundef %61, i64 noundef %62)
  br label %63

63:                                               ; preds = %56, %32
  ret void
}

; Function Attrs: mustprogress uwtable
define void @_ZN2cv9softfloatC2Em(ptr noundef nonnull align 4 dereferenceable(4) %0, i64 noundef %1) unnamed_addr #0 align 2 {
  %3 = alloca ptr, align 8
  %4 = alloca i64, align 8
  %5 = alloca %"struct.cv::softfloat", align 4
  store ptr %0, ptr %3, align 8
  store i64 %1, ptr %4, align 8
  %6 = load ptr, ptr %3, align 8
  %7 = load i64, ptr %4, align 8
  call void @_ZN2cvL11ui64_to_f32Em(ptr dead_on_unwind writable sret(%"struct.cv::softfloat") align 4 %5, i64 noundef %7)
  %8 = call noundef nonnull align 4 dereferenceable(4) ptr @_ZN2cv9softfloataSERKS0_(ptr noundef nonnull align 4 dereferenceable(4) %6, ptr noundef nonnull align 4 dereferenceable(4) %5)
  ret void
}