; Function Attrs: mustprogress nofree norecurse nosync nounwind willreturn memory(argmem: write) uwtable
define void @_ZN2cv9softfloatC2Em(ptr nocapture noundef nonnull writeonly align 4 dereferenceable(4) %0, i64 noundef %1) unnamed_addr #0 align 2 {
  %3 = lshr i64 %1, 32
  %.not.i.i = icmp ult i64 %1, 4294967296
  %spec.select.i.i = select i1 %.not.i.i, i8 32, i8 0
  %spec.select16.i.i = select i1 %.not.i.i, i64 %1, i64 %3
  %.0.i.i = trunc nuw i64 %spec.select16.i.i to i32
  %4 = icmp ult i64 %spec.select16.i.i, 65536
  %5 = or disjoint i8 %spec.select.i.i, 16
  %6 = shl nuw i32 %.0.i.i, 16
  %.113.i.i = select i1 %4, i8 %5, i8 %spec.select.i.i
  %.1.i.i = select i1 %4, i32 %6, i32 %.0.i.i
  %7 = icmp ult i32 %.1.i.i, 16777216
  %8 = or disjoint i8 %.113.i.i, 8
  %9 = shl nuw i32 %.1.i.i, 8
  %.214.i.i = select i1 %7, i8 %8, i8 %.113.i.i
  %.2.i.i = select i1 %7, i32 %9, i32 %.1.i.i
  %10 = lshr i32 %.2.i.i, 24
  %11 = zext nneg i32 %10 to i64
  %12 = getelementptr inbounds [256 x i8], ptr @_ZN2cvL28softfloat_countLeadingZeros8E, i64 0, i64 %11
  %13 = load i8, ptr %12, align 1, !noalias !7
  %14 = add i8 %13, %.214.i.i
  %15 = add i8 %14, -40
  %16 = icmp sgt i8 %15, -1
  br i1 %16, label %17, label %25

17:                                               ; preds = %2
  %18 = zext nneg i8 %15 to i32
  %.not.i = icmp eq i64 %1, 0
  %19 = zext nneg i8 %15 to i64
  %20 = shl i64 %1, %19
  %21 = trunc i64 %20 to i32
  %22 = shl nuw nsw i32 %18, 23
  %reass.sub = sub i32 %21, %22
  %23 = add i32 %reass.sub, 1249902592
  %24 = select i1 %.not.i, i32 0, i32 %23
  br label %_ZN2cvL11ui64_to_f32Em.exit

25:                                               ; preds = %2
  %26 = add nsw i8 %14, -33
  %27 = sext i8 %26 to i32
  %28 = icmp slt i8 %14, 33
  br i1 %28, label %29, label %38

29:                                               ; preds = %25
  %30 = sub nsw i8 33, %14
  %31 = zext nneg i8 %30 to i64
  %32 = lshr i64 %1, %31
  %notmask.i.i = shl nsw i64 -1, %31
  %33 = xor i64 %notmask.i.i, -1
  %34 = and i64 %33, %1
  %35 = icmp ne i64 %34, 0
  %36 = zext i1 %35 to i64
  %37 = or i64 %32, %36
  br label %41

38:                                               ; preds = %25
  %39 = zext nneg i32 %27 to i64
  %40 = shl i64 %1, %39
  br label %41

41:                                               ; preds = %38, %29
  %42 = phi i64 [ %37, %29 ], [ %40, %38 ]
  %43 = sub nsw i32 156, %27
  %44 = zext nneg i32 %43 to i64
  %45 = icmp ugt i32 %43, 252
  br i1 %45, label %46, label %50

46:                                               ; preds = %41
  %47 = icmp ne i8 %26, -97
  %48 = add i64 %42, -2147483584
  %49 = icmp ult i64 %48, -2147483648
  %or.cond.i.i = or i1 %47, %49
  br i1 %or.cond.i.i, label %_ZN2cvL11ui64_to_f32Em.exit, label %50

50:                                               ; preds = %46, %41
  %.038.i.i = phi i64 [ %44, %41 ], [ 253, %46 ]
  %51 = add i64 %42, 64
  %52 = lshr i64 %51, 7
  %.039.i18.i = and i64 %42, 127
  %.not48.i.i = icmp eq i64 %.039.i18.i, 64
  %53 = zext i1 %.not48.i.i to i64
  %54 = xor i64 %53, -1
  %55 = and i64 %52, %54
  %.not49.i.i = icmp eq i64 %55, 0
  %56 = shl nuw nsw i64 %.038.i.i, 23
  %57 = select i1 %.not49.i.i, i64 0, i64 %56
  %58 = add nuw nsw i64 %57, %55
  %59 = trunc i64 %58 to i32
  br label %_ZN2cvL11ui64_to_f32Em.exit

_ZN2cvL11ui64_to_f32Em.exit:                      ; preds = %50, %46, %17
  %storemerge.i = phi i32 [ %24, %17 ], [ %59, %50 ], [ 2139095040, %46 ]
  store i32 %storemerge.i, ptr %0, align 4
  ret void
}